target datalayout = "e-m:e-p270:32:32-p271:32:32-p272:64:64-i64:64-i128:128-f80:128-n8:16:32:64-S128"
target triple = "x86_64-pc-linux-gnu"

%struct.__va_list_tag = type { i32, i32, ptr, ptr }

@stderr = external global ptr, align 8
@.str.3 = private unnamed_addr constant [8 x i8] c"usage.c\00", align 1
@bug_called_must_BUG = dso_local global i32 0, align 4
@.str.15 = private unnamed_addr constant [13 x i8] c"BUG: %s:%d: \00", align 1

; Function Attrs: nounwind uwtable
define internal void @vreportf(ptr noundef %0, ptr noundef %1, ptr noundef %2) #0 {
  %4 = alloca ptr, align 8
  %5 = alloca ptr, align 8
  %6 = alloca ptr, align 8
  store ptr %0, ptr %4, align 8, !tbaa !8
  store ptr %1, ptr %5, align 8, !tbaa !8
  store ptr %2, ptr %6, align 8, !tbaa !21
  %7 = load ptr, ptr @stderr, align 8, !tbaa !14
  %8 = load ptr, ptr %4, align 8, !tbaa !8
  %9 = load ptr, ptr %5, align 8, !tbaa !8
  %10 = load ptr, ptr %6, align 8, !tbaa !21
  call void @vfreportf(ptr noundef %7, ptr noundef %8, ptr noundef %9, ptr noundef %10)
  ret void
}

; Function Attrs: nounwind uwtable
define internal void @BUG_vfl_common(ptr noundef %0, i32 noundef %1, ptr noundef %2, ptr noundef %3) #0 {
  %5 = alloca ptr, align 8
  %6 = alloca i32, align 4
  %7 = alloca ptr, align 8
  %8 = alloca ptr, align 8
  %9 = alloca [256 x i8], align 16
  store ptr %0, ptr %5, align 8, !tbaa !8
  store i32 %1, ptr %6, align 4, !tbaa !10
  store ptr %2, ptr %7, align 8, !tbaa !8
  store ptr %3, ptr %8, align 8, !tbaa !21
  call void @llvm.lifetime.start.p0(i64 256, ptr %9) #11
  %10 = getelementptr inbounds [256 x i8], ptr %9, i64 0, i64 0
  %11 = load ptr, ptr %5, align 8, !tbaa !8
  %12 = load i32, ptr %6, align 4, !tbaa !10
  %13 = call i32 (ptr, i64, ptr, ...) @snprintf(ptr noundef %10, i64 noundef 256, ptr noundef @.str.15, ptr noundef %11, i32 noundef %12) #11
  %14 = getelementptr inbounds [256 x i8], ptr %9, i64 0, i64 0
  %15 = load ptr, ptr %7, align 8, !tbaa !8
  %16 = load ptr, ptr %8, align 8, !tbaa !21
  call void @vreportf(ptr noundef %14, ptr noundef %15, ptr noundef %16)
  call void @llvm.lifetime.end.p0(i64 256, ptr %9) #11
  ret void
}

; Function Attrs: nounwind uwtable
define dso_local void @bug_fl(ptr noundef %0, i32 noundef %1, ptr noundef %2, ...) #0 {
  %4 = alloca ptr, align 8
  %5 = alloca i32, align 4
  %6 = alloca ptr, align 8
  %7 = alloca [1 x %struct.__va_list_tag], align 16
  store ptr %0, ptr %4, align 8, !tbaa !8
  store i32 %1, ptr %5, align 4, !tbaa !10
  store ptr %2, ptr %6, align 8, !tbaa !8
  call void @llvm.lifetime.start.p0(i64 24, ptr %7) #11
  store i32 1, ptr @bug_called_must_BUG, align 4, !tbaa !10
  %8 = getelementptr inbounds [1 x %struct.__va_list_tag], ptr %7, i64 0, i64 0
  call void @llvm.va_start.p0(ptr %8)
  %9 = load ptr, ptr %4, align 8, !tbaa !8
  %10 = load i32, ptr %5, align 4, !tbaa !10
  %11 = load ptr, ptr %6, align 8, !tbaa !8
  %12 = getelementptr inbounds [1 x %struct.__va_list_tag], ptr %7, i64 0, i64 0
  call void @BUG_vfl_common(ptr noundef %9, i32 noundef %10, ptr noundef %11, ptr noundef %12)
  %13 = getelementptr inbounds [1 x %struct.__va_list_tag], ptr %7, i64 0, i64 0
  call void @llvm.va_end.p0(ptr %13)
  %14 = getelementptr inbounds [1 x %struct.__va_list_tag], ptr %7, i64 0, i64 0
  call void @llvm.va_start.p0(ptr %14)
  %15 = load ptr, ptr %6, align 8, !tbaa !8
  %16 = getelementptr inbounds [1 x %struct.__va_list_tag], ptr %7, i64 0, i64 0
  call void @trace2_cmd_error_va_fl(ptr noundef @.str.3, i32 noundef 372, ptr noundef %15, ptr noundef %16)
  %17 = getelementptr inbounds [1 x %struct.__va_list_tag], ptr %7, i64 0, i64 0
  call void @llvm.va_end.p0(ptr %17)
  call void @llvm.lifetime.end.p0(i64 24, ptr %7) #11
  ret void
}