; Function Attrs: nounwind uwtable
define dso_local void @bug_fl(ptr noundef %0, i32 noundef %1, ptr noundef %2, ...) local_unnamed_addr #6 {
  %4 = alloca [256 x i8], align 16
  %5 = alloca [1 x %struct.__va_list_tag], align 16
  call void @llvm.lifetime.start.p0(i64 24, ptr nonnull %5) #17
  store i32 1, ptr @bug_called_must_BUG, align 4, !tbaa !12
  call void @llvm.va_start.p0(ptr nonnull %5)
  call void @llvm.lifetime.start.p0(i64 256, ptr nonnull %4) #17
  %6 = call i32 (ptr, i64, ptr, ...) @snprintf(ptr noundef nonnull dereferenceable(1) %4, i64 noundef 256, ptr noundef nonnull @.str.15, ptr noundef %0, i32 noundef %1) #17
  %7 = load ptr, ptr @stderr, align 8, !tbaa !10
  call fastcc void @vfreportf(ptr noundef %7, ptr noundef nonnull %4, ptr noundef %2, ptr noundef nonnull %5)
  call void @llvm.lifetime.end.p0(i64 256, ptr nonnull %4) #17
  call void @llvm.va_end.p0(ptr nonnull %5)
  call void @llvm.va_start.p0(ptr nonnull %5)
  call void @trace2_cmd_error_va_fl(ptr noundef nonnull @.str.3, i32 noundef 372, ptr noundef %2, ptr noundef nonnull %5) #17
  call void @llvm.va_end.p0(ptr nonnull %5)
  call void @llvm.lifetime.end.p0(i64 24, ptr nonnull %5) #17
  ret void
}